; Function Attrs: mustprogress nounwind uwtable
define dso_local noundef zeroext i1 @_ZN5clang6driver6Driver17GetReleaseVersionEN4llvm9StringRefENS2_15MutableArrayRefIjEE(ptr %0, i64 %1, ptr nocapture writeonly %2, i64 %3) local_unnamed_addr #0 align 2 {
  %5 = alloca i64, align 8
  %6 = alloca %"class.llvm::StringRef", align 8
  store ptr %0, ptr %6, align 8
  %7 = getelementptr inbounds nuw i8, ptr %6, i64 8
  store i64 %1, ptr %7, align 8
  %8 = icmp ne i64 %1, 0
  %9 = icmp ne i64 %3, 0
  %or.cond = select i1 %8, i1 %9, i1 false
  br i1 %or.cond, label %.lr.ph, label %_ZN4llvm9StringRef13consume_frontES0_.exit.thread

.lr.ph:                                           ; preds = %4, %20
  %10 = phi i64 [ %24, %20 ], [ 0, %4 ]
  %.010 = phi i32 [ %23, %20 ], [ 0, %4 ]
  call void @llvm.lifetime.start.p0(i64 8, ptr nonnull %5)
  %11 = call noundef zeroext i1 @_ZN4llvm22consumeUnsignedIntegerERNS_9StringRefEjRy(ptr noundef nonnull align 8 dereferenceable(16) %6, i32 noundef 10, ptr noundef nonnull align 8 dereferenceable(8) %5) #30
  br i1 %11, label %_ZN4llvm9StringRef14consumeIntegerIjEEbjRT_.exit.thread, label %12

12:                                               ; preds = %.lr.ph
  %13 = load i64, ptr %5, align 8
  %.not.i = icmp ult i64 %13, 4294967296
  br i1 %.not.i, label %14, label %_ZN4llvm9StringRef14consumeIntegerIjEEbjRT_.exit.thread

_ZN4llvm9StringRef14consumeIntegerIjEEbjRT_.exit.thread: ; preds = %12, %.lr.ph
  call void @llvm.lifetime.end.p0(i64 8, ptr nonnull %5)
  br label %_ZN4llvm9StringRef13consume_frontES0_.exit.thread

14:                                               ; preds = %12
  %15 = trunc nuw i64 %13 to i32
  call void @llvm.lifetime.end.p0(i64 8, ptr nonnull %5)
  %16 = getelementptr inbounds i32, ptr %2, i64 %10
  store i32 %15, ptr %16, align 4
  %17 = load i64, ptr %7, align 8
  %18 = icmp eq i64 %17, 0
  br i1 %18, label %_ZN4llvm9StringRef13consume_frontES0_.exit.thread, label %_ZNK4llvm9StringRef11starts_withES0_.exit.i

_ZNK4llvm9StringRef11starts_withES0_.exit.i:      ; preds = %14
  %.pre.i = load ptr, ptr %6, align 8
  %lhsc = load i8, ptr %.pre.i, align 1
  %19 = icmp eq i8 %lhsc, 46
  br i1 %19, label %20, label %_ZN4llvm9StringRef13consume_frontES0_.exit.thread

20:                                               ; preds = %_ZNK4llvm9StringRef11starts_withES0_.exit.i
  %21 = getelementptr inbounds i8, ptr %.pre.i, i64 1
  %22 = add i64 %17, -1
  store ptr %21, ptr %6, align 8
  store i64 %22, ptr %7, align 8
  %23 = add i32 %.010, 1
  %24 = zext i32 %23 to i64
  %25 = icmp ugt i64 %3, %24
  br i1 %25, label %.lr.ph, label %_ZN4llvm9StringRef13consume_frontES0_.exit.thread, !llvm.loop !1544

_ZN4llvm9StringRef13consume_frontES0_.exit.thread: ; preds = %14, %20, %_ZNK4llvm9StringRef11starts_withES0_.exit.i, %_ZN4llvm9StringRef14consumeIntegerIjEEbjRT_.exit.thread, %4
  %.03 = phi i1 [ false, %4 ], [ false, %_ZN4llvm9StringRef14consumeIntegerIjEEbjRT_.exit.thread ], [ %18, %_ZNK4llvm9StringRef11starts_withES0_.exit.i ], [ %18, %20 ], [ %18, %14 ]
  ret i1 %.03
}